; Function Attrs: mustprogress nounwind uwtable
define hidden void @_ZN12GraphBuilder3retEi(ptr nocapture noundef nonnull align 8 dereferenceable(97) %0, i32 noundef %1) local_unnamed_addr #0 align 2 {
  %3 = load ptr, ptr %0, align 8
  %4 = getelementptr inbounds i8, ptr %3, i64 72
  %5 = load i8, ptr %4, align 8
  %6 = trunc i8 %5 to i1
  br i1 %6, label %10, label %7

7:                                                ; preds = %2
  %8 = getelementptr inbounds i8, ptr %0, i64 8
  %9 = load ptr, ptr %8, align 8
  tail call void @_ZN11Compilation7bailoutEPKc(ptr noundef nonnull align 8 dereferenceable(704) %9, ptr noundef nonnull @.str.8) #19
  br label %53

10:                                               ; preds = %2
  %11 = getelementptr inbounds i8, ptr %3, i64 80
  %12 = load i32, ptr %11, align 8
  %.not = icmp eq i32 %12, %1
  br i1 %.not, label %16, label %13

13:                                               ; preds = %10
  %14 = getelementptr inbounds i8, ptr %0, i64 8
  %15 = load ptr, ptr %14, align 8
  tail call void @_ZN11Compilation7bailoutEPKc(ptr noundef nonnull align 8 dereferenceable(704) %15, ptr noundef nonnull @.str.9) #19
  br label %53

16:                                               ; preds = %10
  %17 = tail call align 8 ptr @llvm.threadlocal.address.p0(ptr align 8 @_ZN6Thread12_thr_currentE)
  %18 = load ptr, ptr %17, align 8
  %19 = getelementptr inbounds i8, ptr %18, i64 1808
  %20 = load ptr, ptr %19, align 8
  %21 = getelementptr inbounds i8, ptr %20, i64 128
  %22 = load ptr, ptr %21, align 8
  %23 = load ptr, ptr %22, align 8
  %24 = getelementptr inbounds i8, ptr %23, i64 40
  %25 = load ptr, ptr %24, align 8
  %26 = getelementptr inbounds i8, ptr %23, i64 32
  %27 = load ptr, ptr %26, align 8
  %28 = ptrtoint ptr %25 to i64
  %29 = ptrtoint ptr %27 to i64
  %30 = sub i64 %28, %29
  %.not.i.i.i = icmp ult i64 %30, 128
  br i1 %.not.i.i.i, label %33, label %31

31:                                               ; preds = %16
  %32 = getelementptr inbounds i8, ptr %27, i64 128
  store ptr %32, ptr %26, align 8
  br label %_ZN11InstructionnwEm.exit

33:                                               ; preds = %16
  %34 = tail call noundef ptr @_ZN5Arena4growEmN17AllocFailStrategy13AllocFailEnumE(ptr noundef nonnull align 8 dereferenceable(48) %23, i64 noundef 128, i32 noundef 0) #19
  br label %_ZN11InstructionnwEm.exit

_ZN11InstructionnwEm.exit:                        ; preds = %31, %33
  %.0.i.i.i = phi ptr [ %27, %31 ], [ %34, %33 ]
  %35 = icmp eq ptr %.0.i.i.i, null
  br i1 %35, label %40, label %36

36:                                               ; preds = %_ZN11InstructionnwEm.exit
  %37 = load ptr, ptr %0, align 8
  %38 = getelementptr inbounds i8, ptr %37, i64 88
  %39 = load ptr, ptr %38, align 8
  tail call void @_ZN4GotoC2EP10BlockBeginb(ptr noundef nonnull align 8 dereferenceable(128) %.0.i.i.i, ptr noundef %39, i1 noundef zeroext false)
  br label %40

40:                                               ; preds = %36, %_ZN11InstructionnwEm.exit
  %41 = load ptr, ptr %0, align 8
  %42 = getelementptr inbounds i8, ptr %41, i64 32
  %43 = load ptr, ptr %42, align 8
  %44 = getelementptr inbounds i8, ptr %43, i64 16
  %45 = load ptr, ptr %44, align 8
  %46 = getelementptr inbounds i8, ptr %43, i64 40
  %47 = load ptr, ptr %46, align 8
  %48 = ptrtoint ptr %45 to i64
  %49 = ptrtoint ptr %47 to i64
  %50 = sub i64 %48, %49
  %51 = trunc i64 %50 to i32
  %52 = tail call noundef ptr @_ZN12GraphBuilder15append_with_bciEP11Instructioni(ptr noundef nonnull align 8 dereferenceable(97) %0, ptr noundef %.0.i.i.i, i32 noundef %51)
  br label %53

53:                                               ; preds = %40, %13, %7
  ret void
}